target datalayout = "e-m:e-p270:32:32-p271:32:32-p272:64:64-i64:64-i128:128-f80:128-n8:16:32:64-S128"
target triple = "x86_64-pc-linux-gnu"

%struct.slurm_update_front_end_msg = type { ptr, i32, ptr, i32 }

@exit_code = external global i32, align 4
@.str.4 = private unnamed_addr constant [35 x i8] c"Invalid input: %s  Request aborted\00", align 1
@.str.21 = private unnamed_addr constant [7 x i8] c"Reason\00", align 1
@.str.25 = private unnamed_addr constant [6 x i8] c"State\00", align 1
@.str.28 = private unnamed_addr constant [6 x i8] c"DRAIN\00", align 1
@.str.31 = private unnamed_addr constant [7 x i8] c"RESUME\00", align 1
@stderr = external global ptr, align 8
@.str.38 = private unnamed_addr constant [17 x i8] c"Request aborted\0A\00", align 1
@.str.43 = private unnamed_addr constant [47 x i8] c"Update of this parameter is not supported: %s\0A\00", align 1
@.str.46 = private unnamed_addr constant [22 x i8] c"No changes specified\0A\00", align 1
@.str.47 = private unnamed_addr constant [13 x i8] c"FrontendName\00", align 1
@.str.48 = private unnamed_addr constant [5 x i8] c"DOWN\00", align 1
@.str.49 = private unnamed_addr constant [66 x i8] c"Invalid input: %s\0ARequest aborted\0AValid states are: DRAIN RESUME\0A\00", align 1
@.str.50 = private unnamed_addr constant [84 x i8] c"You must specify a reason when DOWNING or DRAINING a frontend node\0ARequest aborted\0A\00", align 1

; Function Attrs: nounwind uwtable
define dso_local i32 @scontrol_update_front_end(i32 noundef %0, ptr noundef %1) #0 {
  %3 = alloca i32, align 4
  %4 = alloca i32, align 4
  %5 = alloca ptr, align 8
  %6 = alloca i32, align 4
  %7 = alloca i32, align 4
  %8 = alloca i32, align 4
  %9 = alloca %struct.slurm_update_front_end_msg, align 8
  %10 = alloca ptr, align 8
  %11 = alloca ptr, align 8
  %12 = alloca ptr, align 8
  %13 = alloca i32, align 4
  %14 = alloca i32, align 4
  %15 = alloca i32, align 4
  %16 = alloca i32, align 4
  store i32 %0, ptr %4, align 4
  store ptr %1, ptr %5, align 8
  call void @llvm.lifetime.start.p0(i64 4, ptr %6) #6
  call void @llvm.lifetime.start.p0(i64 4, ptr %7) #6
  store i32 0, ptr %7, align 4
  call void @llvm.lifetime.start.p0(i64 4, ptr %8) #6
  store i32 0, ptr %8, align 4
  call void @llvm.lifetime.start.p0(i64 32, ptr %9) #6
  call void @llvm.lifetime.start.p0(i64 8, ptr %10) #6
  store ptr null, ptr %10, align 8
  call void @llvm.lifetime.start.p0(i64 8, ptr %11) #6
  call void @llvm.lifetime.start.p0(i64 8, ptr %12) #6
  call void @llvm.lifetime.start.p0(i64 4, ptr %13) #6
  call void @llvm.lifetime.start.p0(i64 4, ptr %14) #6
  call void @slurm_init_update_front_end_msg(ptr noundef %9)
  store i32 0, ptr %6, align 4
  br label %17

17:                                               ; preds = %206, %2
  %18 = load i32, ptr %6, align 4
  %19 = load i32, ptr %4, align 4
  %20 = icmp slt i32 %18, %19
  br i1 %20, label %21, label %209

21:                                               ; preds = %17
  %22 = load ptr, ptr %5, align 8
  %23 = load i32, ptr %6, align 4
  %24 = sext i32 %23 to i64
  %25 = getelementptr inbounds ptr, ptr %22, i64 %24
  %26 = load ptr, ptr %25, align 8
  store ptr %26, ptr %11, align 8
  %27 = load ptr, ptr %5, align 8
  %28 = load i32, ptr %6, align 4
  %29 = sext i32 %28 to i64
  %30 = getelementptr inbounds ptr, ptr %27, i64 %29
  %31 = load ptr, ptr %30, align 8
  %32 = call ptr @strchr(ptr noundef %31, i32 noundef 61) #8
  store ptr %32, ptr %12, align 8
  %33 = load ptr, ptr %12, align 8
  %34 = icmp ne ptr %33, null
  br i1 %34, label %35, label %51

35:                                               ; preds = %21
  %36 = load ptr, ptr %12, align 8
  %37 = load ptr, ptr %5, align 8
  %38 = load i32, ptr %6, align 4
  %39 = sext i32 %38 to i64
  %40 = getelementptr inbounds ptr, ptr %37, i64 %39
  %41 = load ptr, ptr %40, align 8
  %42 = ptrtoint ptr %36 to i64
  %43 = ptrtoint ptr %41 to i64
  %44 = sub i64 %42, %43
  %45 = trunc i64 %44 to i32
  store i32 %45, ptr %13, align 4
  %46 = load ptr, ptr %12, align 8
  %47 = getelementptr inbounds nuw i8, ptr %46, i32 1
  store ptr %47, ptr %12, align 8
  %48 = load ptr, ptr %12, align 8
  %49 = call i64 @strlen(ptr noundef %48) #8
  %50 = trunc i64 %49 to i32
  store i32 %50, ptr %14, align 4
  br label %58

51:                                               ; preds = %21
  store i32 1, ptr @exit_code, align 4
  %52 = load ptr, ptr %5, align 8
  %53 = load i32, ptr %6, align 4
  %54 = sext i32 %53 to i64
  %55 = getelementptr inbounds ptr, ptr %52, i64 %54
  %56 = load ptr, ptr %55, align 8
  %57 = call i32 (ptr, ...) @error(ptr noundef @.str.4, ptr noundef %56)
  store i32 -1, ptr %3, align 4
  store i32 1, ptr %15, align 4
  br label %250

58:                                               ; preds = %35
  %59 = load ptr, ptr %11, align 8
  %60 = load i32, ptr %13, align 4
  %61 = icmp sgt i32 %60, 1
  br i1 %61, label %62, label %64

62:                                               ; preds = %58
  %63 = load i32, ptr %13, align 4
  br label %65

64:                                               ; preds = %58
  br label %65

65:                                               ; preds = %64, %62
  %66 = phi i32 [ %63, %62 ], [ 1, %64 ]
  %67 = sext i32 %66 to i64
  %68 = call i32 @xstrncasecmp(ptr noundef %59, ptr noundef @.str.47, i64 noundef %67)
  %69 = icmp eq i32 %68, 0
  br i1 %69, label %70, label %73

70:                                               ; preds = %65
  %71 = load ptr, ptr %12, align 8
  %72 = getelementptr inbounds nuw %struct.slurm_update_front_end_msg, ptr %9, i32 0, i32 0
  store ptr %71, ptr %72, align 8
  br label %205

73:                                               ; preds = %65
  %74 = load ptr, ptr %11, align 8
  %75 = load i32, ptr %13, align 4
  %76 = icmp sgt i32 %75, 1
  br i1 %76, label %77, label %79

77:                                               ; preds = %73
  %78 = load i32, ptr %13, align 4
  br label %80

79:                                               ; preds = %73
  br label %80

80:                                               ; preds = %79, %77
  %81 = phi i32 [ %78, %77 ], [ 1, %79 ]
  %82 = sext i32 %81 to i64
  %83 = call i32 @xstrncasecmp(ptr noundef %74, ptr noundef @.str.21, i64 noundef %82)
  %84 = icmp eq i32 %83, 0
  br i1 %84, label %85, label %122

85:                                               ; preds = %80
  call void @llvm.lifetime.start.p0(i64 4, ptr %16) #6
  %86 = load ptr, ptr %12, align 8
  %87 = load i8, ptr %86, align 1
  %88 = sext i8 %87 to i32
  %89 = icmp eq i32 %88, 34
  br i1 %89, label %90, label %94

90:                                               ; preds = %85
  %91 = load ptr, ptr %12, align 8
  %92 = getelementptr inbounds i8, ptr %91, i64 1
  %93 = call ptr @xstrdup(ptr noundef %92)
  store ptr %93, ptr %10, align 8
  br label %97

94:                                               ; preds = %85
  %95 = load ptr, ptr %12, align 8
  %96 = call ptr @xstrdup(ptr noundef %95)
  store ptr %96, ptr %10, align 8
  br label %97

97:                                               ; preds = %94, %90
  %98 = load ptr, ptr %10, align 8
  %99 = call i64 @strlen(ptr noundef %98) #8
  %100 = sub i64 %99, 1
  %101 = trunc i64 %100 to i32
  store i32 %101, ptr %16, align 4
  %102 = load i32, ptr %16, align 4
  %103 = icmp sge i32 %102, 0
  br i1 %103, label %104, label %117

104:                                              ; preds = %97
  %105 = load ptr, ptr %10, align 8
  %106 = load i32, ptr %16, align 4
  %107 = sext i32 %106 to i64
  %108 = getelementptr inbounds i8, ptr %105, i64 %107
  %109 = load i8, ptr %108, align 1
  %110 = sext i8 %109 to i32
  %111 = icmp eq i32 %110, 34
  br i1 %111, label %112, label %117

112:                                              ; preds = %104
  %113 = load ptr, ptr %10, align 8
  %114 = load i32, ptr %16, align 4
  %115 = sext i32 %114 to i64
  %116 = getelementptr inbounds i8, ptr %113, i64 %115
  store i8 0, ptr %116, align 1
  br label %117

117:                                              ; preds = %112, %104, %97
  %118 = load ptr, ptr %10, align 8
  %119 = getelementptr inbounds nuw %struct.slurm_update_front_end_msg, ptr %9, i32 0, i32 2
  store ptr %118, ptr %119, align 8
  %120 = load i32, ptr %8, align 4
  %121 = add nsw i32 %120, 1
  store i32 %121, ptr %8, align 4
  call void @llvm.lifetime.end.p0(i64 4, ptr %16) #6
  br label %204

122:                                              ; preds = %80
  %123 = load ptr, ptr %11, align 8
  %124 = load i32, ptr %13, align 4
  %125 = icmp sgt i32 %124, 1
  br i1 %125, label %126, label %128

126:                                              ; preds = %122
  %127 = load i32, ptr %13, align 4
  br label %129

128:                                              ; preds = %122
  br label %129

129:                                              ; preds = %128, %126
  %130 = phi i32 [ %127, %126 ], [ 1, %128 ]
  %131 = sext i32 %130 to i64
  %132 = call i32 @xstrncasecmp(ptr noundef %123, ptr noundef @.str.25, i64 noundef %131)
  %133 = icmp eq i32 %132, 0
  br i1 %133, label %134, label %193

134:                                              ; preds = %129
  %135 = load ptr, ptr %12, align 8
  %136 = load i32, ptr %14, align 4
  %137 = icmp sgt i32 %136, 3
  br i1 %137, label %138, label %140

138:                                              ; preds = %134
  %139 = load i32, ptr %14, align 4
  br label %141

140:                                              ; preds = %134
  br label %141

141:                                              ; preds = %140, %138
  %142 = phi i32 [ %139, %138 ], [ 3, %140 ]
  %143 = sext i32 %142 to i64
  %144 = call i32 @xstrncasecmp(ptr noundef %135, ptr noundef @.str.28, i64 noundef %143)
  %145 = icmp eq i32 %144, 0
  br i1 %145, label %146, label %150

146:                                              ; preds = %141
  %147 = getelementptr inbounds nuw %struct.slurm_update_front_end_msg, ptr %9, i32 0, i32 1
  store i32 512, ptr %147, align 8
  %148 = load i32, ptr %8, align 4
  %149 = add nsw i32 %148, 1
  store i32 %149, ptr %8, align 4
  br label %192

150:                                              ; preds = %141
  %151 = load ptr, ptr %12, align 8
  %152 = load i32, ptr %14, align 4
  %153 = icmp sgt i32 %152, 3
  br i1 %153, label %154, label %156

154:                                              ; preds = %150
  %155 = load i32, ptr %14, align 4
  br label %157

156:                                              ; preds = %150
  br label %157

157:                                              ; preds = %156, %154
  %158 = phi i32 [ %155, %154 ], [ 3, %156 ]
  %159 = sext i32 %158 to i64
  %160 = call i32 @xstrncasecmp(ptr noundef %151, ptr noundef @.str.48, i64 noundef %159)
  %161 = icmp eq i32 %160, 0
  br i1 %161, label %162, label %166

162:                                              ; preds = %157
  %163 = getelementptr inbounds nuw %struct.slurm_update_front_end_msg, ptr %9, i32 0, i32 1
  store i32 1, ptr %163, align 8
  %164 = load i32, ptr %8, align 4
  %165 = add nsw i32 %164, 1
  store i32 %165, ptr %8, align 4
  br label %191

166:                                              ; preds = %157
  %167 = load ptr, ptr %12, align 8
  %168 = load i32, ptr %14, align 4
  %169 = icmp sgt i32 %168, 3
  br i1 %169, label %170, label %172

170:                                              ; preds = %166
  %171 = load i32, ptr %14, align 4
  br label %173

172:                                              ; preds = %166
  br label %173

173:                                              ; preds = %172, %170
  %174 = phi i32 [ %171, %170 ], [ 3, %172 ]
  %175 = sext i32 %174 to i64
  %176 = call i32 @xstrncasecmp(ptr noundef %167, ptr noundef @.str.31, i64 noundef %175)
  %177 = icmp eq i32 %176, 0
  br i1 %177, label %178, label %182

178:                                              ; preds = %173
  %179 = getelementptr inbounds nuw %struct.slurm_update_front_end_msg, ptr %9, i32 0, i32 1
  store i32 256, ptr %179, align 8
  %180 = load i32, ptr %8, align 4
  %181 = add nsw i32 %180, 1
  store i32 %181, ptr %8, align 4
  br label %190

182:                                              ; preds = %173
  store i32 1, ptr @exit_code, align 4
  %183 = load ptr, ptr @stderr, align 8
  %184 = load ptr, ptr %5, align 8
  %185 = load i32, ptr %6, align 4
  %186 = sext i32 %185 to i64
  %187 = getelementptr inbounds ptr, ptr %184, i64 %186
  %188 = load ptr, ptr %187, align 8
  %189 = call i32 (ptr, ptr, ...) @fprintf(ptr noundef %183, ptr noundef @.str.49, ptr noundef %188) #6
  br label %243

190:                                              ; preds = %178
  br label %191

191:                                              ; preds = %190, %162
  br label %192

192:                                              ; preds = %191, %146
  br label %203

193:                                              ; preds = %129
  store i32 1, ptr @exit_code, align 4
  %194 = load ptr, ptr @stderr, align 8
  %195 = load ptr, ptr %5, align 8
  %196 = load i32, ptr %6, align 4
  %197 = sext i32 %196 to i64
  %198 = getelementptr inbounds ptr, ptr %195, i64 %197
  %199 = load ptr, ptr %198, align 8
  %200 = call i32 (ptr, ptr, ...) @fprintf(ptr noundef %194, ptr noundef @.str.43, ptr noundef %199) #6
  %201 = load ptr, ptr @stderr, align 8
  %202 = call i32 (ptr, ptr, ...) @fprintf(ptr noundef %201, ptr noundef @.str.38) #6
  br label %243

203:                                              ; preds = %192
  br label %204

204:                                              ; preds = %203, %117
  br label %205

205:                                              ; preds = %204, %70
  br label %206

206:                                              ; preds = %205
  %207 = load i32, ptr %6, align 4
  %208 = add nsw i32 %207, 1
  store i32 %208, ptr %6, align 4
  br label %17, !llvm.loop !13

209:                                              ; preds = %17
  %210 = getelementptr inbounds nuw %struct.slurm_update_front_end_msg, ptr %9, i32 0, i32 1
  %211 = load i32, ptr %210, align 8
  %212 = icmp eq i32 %211, 1
  br i1 %212, label %223, label %213

213:                                              ; preds = %209
  %214 = getelementptr inbounds nuw %struct.slurm_update_front_end_msg, ptr %9, i32 0, i32 1
  %215 = load i32, ptr %214, align 8
  %216 = zext i32 %215 to i64
  %217 = icmp eq i64 %216, 512
  br i1 %217, label %223, label %218

218:                                              ; preds = %213
  %219 = getelementptr inbounds nuw %struct.slurm_update_front_end_msg, ptr %9, i32 0, i32 1
  %220 = load i32, ptr %219, align 8
  %221 = zext i32 %220 to i64
  %222 = icmp eq i64 %221, 8192
  br i1 %222, label %223, label %235

223:                                              ; preds = %218, %213, %209
  %224 = getelementptr inbounds nuw %struct.slurm_update_front_end_msg, ptr %9, i32 0, i32 2
  %225 = load ptr, ptr %224, align 8
  %226 = icmp eq ptr %225, null
  br i1 %226, label %232, label %227

227:                                              ; preds = %223
  %228 = getelementptr inbounds nuw %struct.slurm_update_front_end_msg, ptr %9, i32 0, i32 2
  %229 = load ptr, ptr %228, align 8
  %230 = call i64 @strlen(ptr noundef %229) #8
  %231 = icmp eq i64 %230, 0
  br i1 %231, label %232, label %235

232:                                              ; preds = %227, %223
  store i32 1, ptr @exit_code, align 4
  %233 = load ptr, ptr @stderr, align 8
  %234 = call i32 (ptr, ptr, ...) @fprintf(ptr noundef %233, ptr noundef @.str.50) #6
  br label %243

235:                                              ; preds = %227, %218
  %236 = load i32, ptr %8, align 4
  %237 = icmp eq i32 %236, 0
  br i1 %237, label %238, label %241

238:                                              ; preds = %235
  store i32 1, ptr @exit_code, align 4
  %239 = load ptr, ptr @stderr, align 8
  %240 = call i32 (ptr, ptr, ...) @fprintf(ptr noundef %239, ptr noundef @.str.46) #6
  store i32 0, ptr %3, align 4
  store i32 1, ptr %15, align 4
  br label %250

241:                                              ; preds = %235
  %242 = call i32 @slurm_update_front_end(ptr noundef %9)
  store i32 %242, ptr %7, align 4
  br label %243

243:                                              ; preds = %241, %232, %193, %182
  call void @slurm_xfree(ptr noundef %10)
  %244 = load i32, ptr %7, align 4
  %245 = icmp ne i32 %244, 0
  br i1 %245, label %246, label %249

246:                                              ; preds = %243
  store i32 1, ptr @exit_code, align 4
  %247 = call ptr @__errno_location() #7
  %248 = load i32, ptr %247, align 4
  store i32 %248, ptr %3, align 4
  store i32 1, ptr %15, align 4
  br label %250

249:                                              ; preds = %243
  store i32 0, ptr %3, align 4
  store i32 1, ptr %15, align 4
  br label %250

250:                                              ; preds = %249, %246, %238, %51
  call void @llvm.lifetime.end.p0(i64 4, ptr %14) #6
  call void @llvm.lifetime.end.p0(i64 4, ptr %13) #6
  call void @llvm.lifetime.end.p0(i64 8, ptr %12) #6
  call void @llvm.lifetime.end.p0(i64 8, ptr %11) #6
  call void @llvm.lifetime.end.p0(i64 8, ptr %10) #6
  call void @llvm.lifetime.end.p0(i64 32, ptr %9) #6
  call void @llvm.lifetime.end.p0(i64 4, ptr %8) #6
  call void @llvm.lifetime.end.p0(i64 4, ptr %7) #6
  call void @llvm.lifetime.end.p0(i64 4, ptr %6) #6
  %251 = load i32, ptr %3, align 4
  ret i32 %251
}