; Function Attrs: nounwind uwtable
define dso_local i32 @scontrol_update_front_end(i32 noundef %0, ptr noundef readonly captures(none) %1) local_unnamed_addr #0 {
  %3 = alloca %struct.slurm_update_front_end_msg, align 8
  %4 = alloca ptr, align 8
  call void @llvm.lifetime.start.p0(i64 32, ptr nonnull %3) #8
  call void @llvm.lifetime.start.p0(i64 8, ptr nonnull %4) #8
  store ptr null, ptr %4, align 8
  call void @slurm_init_update_front_end_msg(ptr noundef nonnull %3) #8
  %5 = icmp sgt i32 %0, 0
  br i1 %5, label %.lr.ph, label %._crit_edge

.lr.ph:                                           ; preds = %2
  %6 = getelementptr inbounds nuw i8, ptr %3, i64 8
  %7 = getelementptr inbounds nuw i8, ptr %3, i64 16
  %wide.trip.count = zext nneg i32 %0 to i64
  br label %8

8:                                                ; preds = %.lr.ph, %82
  %indvars.iv = phi i64 [ 0, %.lr.ph ], [ %indvars.iv.next, %82 ]
  %.05972 = phi i32 [ 0, %.lr.ph ], [ %.1, %82 ]
  %9 = getelementptr inbounds nuw ptr, ptr %1, i64 %indvars.iv
  %10 = load ptr, ptr %9, align 8
  %11 = call ptr @strchr(ptr noundef nonnull dereferenceable(1) %10, i32 noundef 61) #10
  %.not = icmp eq ptr %11, null
  br i1 %.not, label %24, label %12

12:                                               ; preds = %8
  %13 = ptrtoint ptr %11 to i64
  %14 = ptrtoint ptr %10 to i64
  %15 = sub i64 %13, %14
  %16 = trunc i64 %15 to i32
  %17 = getelementptr inbounds nuw i8, ptr %11, i64 1
  %18 = call i64 @strlen(ptr noundef nonnull dereferenceable(1) %17) #10
  %19 = trunc i64 %18 to i32
  %20 = call i32 @llvm.smax.i32(i32 %16, i32 1)
  %21 = zext nneg i32 %20 to i64
  %22 = call i32 @xstrncasecmp(ptr noundef nonnull %10, ptr noundef nonnull @.str.47, i64 noundef %21) #8
  %23 = icmp eq i32 %22, 0
  br i1 %23, label %28, label %29

24:                                               ; preds = %8
  %25 = getelementptr inbounds nuw ptr, ptr %1, i64 %indvars.iv
  store i32 1, ptr @exit_code, align 4
  %26 = load ptr, ptr %25, align 8
  %27 = call i32 (ptr, ...) @error(ptr noundef nonnull @.str.4, ptr noundef %26) #8
  br label %105

28:                                               ; preds = %12
  store ptr %17, ptr %3, align 8
  br label %82

29:                                               ; preds = %12
  %30 = call i32 @xstrncasecmp(ptr noundef nonnull %10, ptr noundef nonnull @.str.21, i64 noundef %21) #8
  %31 = icmp eq i32 %30, 0
  br i1 %31, label %32, label %50

32:                                               ; preds = %29
  %33 = load i8, ptr %17, align 1
  %34 = icmp eq i8 %33, 34
  %35 = getelementptr inbounds nuw i8, ptr %11, i64 2
  %.sink = select i1 %34, ptr %35, ptr %17
  %36 = call ptr @xstrdup(ptr noundef nonnull %.sink) #8
  store ptr %36, ptr %4, align 8
  %37 = call i64 @strlen(ptr noundef nonnull dereferenceable(1) %36) #10
  %38 = trunc i64 %37 to i32
  %39 = add i32 %38, -1
  %40 = icmp sgt i32 %39, -1
  br i1 %40, label %41, label %47

41:                                               ; preds = %32
  %42 = zext nneg i32 %39 to i64
  %43 = getelementptr inbounds nuw i8, ptr %36, i64 %42
  %44 = load i8, ptr %43, align 1
  %45 = icmp eq i8 %44, 34
  br i1 %45, label %46, label %47

46:                                               ; preds = %41
  store i8 0, ptr %43, align 1
  %.pre = load ptr, ptr %4, align 8
  br label %47

47:                                               ; preds = %46, %41, %32
  %48 = phi ptr [ %.pre, %46 ], [ %36, %41 ], [ %36, %32 ]
  store ptr %48, ptr %7, align 8
  %49 = add nsw i32 %.05972, 1
  br label %82

50:                                               ; preds = %29
  %51 = call i32 @xstrncasecmp(ptr noundef nonnull %10, ptr noundef nonnull @.str.25, i64 noundef %21) #8
  %52 = icmp eq i32 %51, 0
  br i1 %52, label %53, label %75

53:                                               ; preds = %50
  %54 = call i32 @llvm.smax.i32(i32 %19, i32 3)
  %55 = zext nneg i32 %54 to i64
  %56 = call i32 @xstrncasecmp(ptr noundef nonnull %17, ptr noundef nonnull @.str.28, i64 noundef %55) #8
  %57 = icmp eq i32 %56, 0
  br i1 %57, label %58, label %60

58:                                               ; preds = %53
  store i32 512, ptr %6, align 8
  %59 = add nsw i32 %.05972, 1
  br label %82

60:                                               ; preds = %53
  %61 = call i32 @xstrncasecmp(ptr noundef nonnull %17, ptr noundef nonnull @.str.48, i64 noundef %55) #8
  %62 = icmp eq i32 %61, 0
  br i1 %62, label %63, label %65

63:                                               ; preds = %60
  store i32 1, ptr %6, align 8
  %64 = add nsw i32 %.05972, 1
  br label %82

65:                                               ; preds = %60
  %66 = call i32 @xstrncasecmp(ptr noundef nonnull %17, ptr noundef nonnull @.str.31, i64 noundef %55) #8
  %67 = icmp eq i32 %66, 0
  br i1 %67, label %68, label %70

68:                                               ; preds = %65
  store i32 256, ptr %6, align 8
  %69 = add nsw i32 %.05972, 1
  br label %82

70:                                               ; preds = %65
  %71 = getelementptr inbounds nuw ptr, ptr %1, i64 %indvars.iv
  store i32 1, ptr @exit_code, align 4
  %72 = load ptr, ptr @stderr, align 8
  %73 = load ptr, ptr %71, align 8
  %74 = call i32 (ptr, ptr, ...) @fprintf(ptr noundef %72, ptr noundef nonnull @.str.49, ptr noundef %73) #11
  br label %.critedge

75:                                               ; preds = %50
  %76 = getelementptr inbounds nuw ptr, ptr %1, i64 %indvars.iv
  store i32 1, ptr @exit_code, align 4
  %77 = load ptr, ptr @stderr, align 8
  %78 = load ptr, ptr %76, align 8
  %79 = call i32 (ptr, ptr, ...) @fprintf(ptr noundef %77, ptr noundef nonnull @.str.43, ptr noundef %78) #11
  %80 = load ptr, ptr @stderr, align 8
  %81 = call i64 @fwrite(ptr nonnull @.str.38, i64 16, i64 1, ptr %80) #12
  br label %.critedge

82:                                               ; preds = %28, %63, %68, %58, %47
  %.1 = phi i32 [ %.05972, %28 ], [ %49, %47 ], [ %59, %58 ], [ %64, %63 ], [ %69, %68 ]
  %indvars.iv.next = add nuw nsw i64 %indvars.iv, 1
  %exitcond.not = icmp eq i64 %indvars.iv.next, %wide.trip.count
  br i1 %exitcond.not, label %._crit_edge.loopexit, label %8, !llvm.loop !13

._crit_edge.loopexit:                             ; preds = %82
  %83 = icmp eq i32 %.1, 0
  br label %._crit_edge

._crit_edge:                                      ; preds = %._crit_edge.loopexit, %2
  %.059.lcssa = phi i1 [ true, %2 ], [ %83, %._crit_edge.loopexit ]
  %84 = getelementptr inbounds nuw i8, ptr %3, i64 8
  %85 = load i32, ptr %84, align 8
  switch i32 %85, label %95 [
    i32 8192, label %86
    i32 512, label %86
    i32 1, label %86
  ]

86:                                               ; preds = %._crit_edge, %._crit_edge, %._crit_edge
  %87 = getelementptr inbounds nuw i8, ptr %3, i64 16
  %88 = load ptr, ptr %87, align 8
  %89 = icmp eq ptr %88, null
  br i1 %89, label %92, label %90

90:                                               ; preds = %86
  %char0 = load i8, ptr %88, align 1
  %91 = icmp eq i8 %char0, 0
  br i1 %91, label %92, label %95

92:                                               ; preds = %90, %86
  store i32 1, ptr @exit_code, align 4
  %93 = load ptr, ptr @stderr, align 8
  %94 = call i64 @fwrite(ptr nonnull @.str.50, i64 83, i64 1, ptr %93) #12
  br label %.critedge

95:                                               ; preds = %._crit_edge, %90
  br i1 %.059.lcssa, label %96, label %99

96:                                               ; preds = %95
  store i32 1, ptr @exit_code, align 4
  %97 = load ptr, ptr @stderr, align 8
  %98 = call i64 @fwrite(ptr nonnull @.str.46, i64 21, i64 1, ptr %97) #12
  br label %105

99:                                               ; preds = %95
  %100 = call i32 @slurm_update_front_end(ptr noundef nonnull %3) #8
  %101 = icmp eq i32 %100, 0
  call void @slurm_xfree(ptr noundef nonnull %4) #8
  br i1 %101, label %105, label %102

102:                                              ; preds = %99
  store i32 1, ptr @exit_code, align 4
  %103 = tail call ptr @__errno_location() #9
  %104 = load i32, ptr %103, align 4
  br label %105

.critedge:                                        ; preds = %92, %75, %70
  call void @slurm_xfree(ptr noundef nonnull %4) #8
  br label %105

105:                                              ; preds = %99, %.critedge, %102, %96, %24
  %.0 = phi i32 [ %104, %102 ], [ -1, %24 ], [ 0, %96 ], [ 0, %.critedge ], [ 0, %99 ]
  call void @llvm.lifetime.end.p0(i64 8, ptr nonnull %4) #8
  call void @llvm.lifetime.end.p0(i64 32, ptr nonnull %3) #8
  ret i32 %.0
}